; Function Attrs: mustprogress nofree norecurse nosync nounwind memory(argmem: readwrite) uwtable
define hidden void @_ZN3sat6clause4elimENS_7literalE(ptr nocapture noundef nonnull align 4 dereferenceable(20) %this, i32 %l.coerce) local_unnamed_addr #3 align 2 {
entry:
  %m_lits = getelementptr inbounds i8, ptr %this, i64 20
  %m_size = getelementptr inbounds i8, ptr %this, i64 4
  %0 = load i32, ptr %m_size, align 4
  %cmp9.not = icmp eq i32 %0, 0
  br i1 %cmp9.not, label %for.end, label %for.body

for.body:                                         ; preds = %entry, %for.inc
  %i.010 = phi i32 [ %inc, %for.inc ], [ 0, %entry ]
  %idxprom = zext i32 %i.010 to i64
  %arrayidx = getelementptr inbounds [0 x %"class.sat::literal"], ptr %m_lits, i64 0, i64 %idxprom
  %1 = load i32, ptr %arrayidx, align 4
  %cmp.i = icmp eq i32 %1, %l.coerce
  br i1 %cmp.i, label %for.end, label %for.inc

for.inc:                                          ; preds = %for.body
  %inc = add nuw i32 %i.010, 1
  %exitcond.not = icmp eq i32 %inc, %0
  br i1 %exitcond.not, label %for.end, label %for.body, !llvm.loop !6

for.end:                                          ; preds = %for.inc, %for.body, %entry
  %i.0.lcssa = phi i32 [ 0, %entry ], [ %i.010, %for.body ], [ %0, %for.inc ]
  %i.114 = add i32 %i.0.lcssa, 1
  %cmp515 = icmp ult i32 %i.114, %0
  br i1 %cmp515, label %for.body6.lr.ph, label %for.end15

for.body6.lr.ph:                                  ; preds = %for.end
  %2 = zext i32 %i.114 to i64
  br label %for.body6

for.body6:                                        ; preds = %for.body6.lr.ph, %for.body6
  %indvars.iv = phi i64 [ %2, %for.body6.lr.ph ], [ %indvars.iv.next, %for.body6 ]
  %i.1.in16 = phi i32 [ %i.0.lcssa, %for.body6.lr.ph ], [ %4, %for.body6 ]
  %arrayidx9 = getelementptr inbounds [0 x %"class.sat::literal"], ptr %m_lits, i64 0, i64 %indvars.iv
  %idxprom11 = zext i32 %i.1.in16 to i64
  %arrayidx12 = getelementptr inbounds [0 x %"class.sat::literal"], ptr %m_lits, i64 0, i64 %idxprom11
  %3 = load i32, ptr %arrayidx9, align 4
  store i32 %3, ptr %arrayidx12, align 4
  %indvars.iv.next = add nuw nsw i64 %indvars.iv, 1
  %4 = trunc i64 %indvars.iv to i32
  %lftr.wideiv = trunc i64 %indvars.iv.next to i32
  %exitcond19.not = icmp eq i32 %0, %lftr.wideiv
  br i1 %exitcond19.not, label %for.end15, label %for.body6, !llvm.loop !7

for.end15:                                        ; preds = %for.body6, %for.end
  %sub18 = add i32 %0, -1
  %idxprom19 = zext i32 %sub18 to i64
  %arrayidx20 = getelementptr inbounds [0 x %"class.sat::literal"], ptr %m_lits, i64 0, i64 %idxprom19
  store i32 %l.coerce, ptr %arrayidx20, align 4
  store i32 %sub18, ptr %m_size, align 4
  %m_strengthened.i = getelementptr inbounds i8, ptr %this, i64 16
  %bf.load.i = load i32, ptr %m_strengthened.i, align 4
  %bf.set.i = or i32 %bf.load.i, 1
  store i32 %bf.set.i, ptr %m_strengthened.i, align 4
  %cmp4.not.i.i.i = icmp eq i32 %sub18, 0
  br i1 %cmp4.not.i.i.i, label %_ZN3sat6clause17mark_strengthenedEv.exit, label %for.body.i.i.i

for.body.i.i.i:                                   ; preds = %for.end15, %for.body.i.i.i
  %indvars.iv.i.i.i = phi i64 [ %indvars.iv.next.i.i.i, %for.body.i.i.i ], [ 0, %for.end15 ]
  %retval.sroa.0.05.i.i.i = phi i32 [ %or.i.i.i.i, %for.body.i.i.i ], [ 0, %for.end15 ]
  %arrayidx.i.i.i = getelementptr inbounds %"class.sat::literal", ptr %m_lits, i64 %indvars.iv.i.i.i
  %5 = load i32, ptr %arrayidx.i.i.i, align 4
  %shr.i.i.i.i = lshr i32 %5, 1
  %and.i.i.i.i.i.i = and i32 %shr.i.i.i.i, 31
  %shl.i.i.i.i.i.i = shl nuw i32 1, %and.i.i.i.i.i.i
  %or.i.i.i.i = or i32 %shl.i.i.i.i.i.i, %retval.sroa.0.05.i.i.i
  %indvars.iv.next.i.i.i = add nuw nsw i64 %indvars.iv.i.i.i, 1
  %exitcond.not.i.i.i = icmp eq i64 %indvars.iv.next.i.i.i, %idxprom19
  br i1 %exitcond.not.i.i.i, label %_ZN3sat6clause17mark_strengthenedEv.exit, label %for.body.i.i.i, !llvm.loop !4

_ZN3sat6clause17mark_strengthenedEv.exit:         ; preds = %for.body.i.i.i, %for.end15
  %retval.sroa.0.0.lcssa.i.i.i = phi i32 [ 0, %for.end15 ], [ %or.i.i.i.i, %for.body.i.i.i ]
  %m_approx.i.i = getelementptr inbounds i8, ptr %this, i64 12
  store i32 %retval.sroa.0.0.lcssa.i.i.i, ptr %m_approx.i.i, align 4
  ret void
}